; Function Attrs: nounwind uwtable
define dso_local range(i32 -1, 1) i32 @PyType_Unwatch(i32 noundef %0, ptr noundef captures(none) %1) local_unnamed_addr #1 {
  %3 = getelementptr i8, ptr %1, i64 8
  %.val = load ptr, ptr %3, align 8, !tbaa !116
  %4 = getelementptr i8, ptr %.val, i64 168
  %.val.val = load i64, ptr %4, align 8, !tbaa !108
  %5 = and i64 %.val.val, 2147483648
  %.not9 = icmp eq i64 %5, 0
  br i1 %.not9, label %6, label %8

6:                                                ; preds = %2
  %7 = load ptr, ptr @PyExc_ValueError, align 8, !tbaa !105
  tail call void @PyErr_SetString(ptr noundef %7, ptr noundef nonnull @.str.10) #24
  br label %27

8:                                                ; preds = %2
  %or.cond.i = icmp ugt i32 %0, 7
  br i1 %or.cond.i, label %validate_watcher_id.exit, label %9

9:                                                ; preds = %8
  %10 = tail call align 8 ptr @llvm.threadlocal.address.p0(ptr align 8 @_Py_tss_tstate)
  %11 = load ptr, ptr %10, align 8, !tbaa !22
  %12 = getelementptr inbounds nuw i8, ptr %11, i64 16
  %13 = load ptr, ptr %12, align 8, !tbaa !24
  %14 = getelementptr inbounds nuw i8, ptr %13, i64 10832
  %15 = zext nneg i32 %0 to i64
  %16 = getelementptr [8 x ptr], ptr %14, i64 0, i64 %15
  %17 = load ptr, ptr %16, align 8, !tbaa !111
  %.not.i = icmp eq ptr %17, null
  br i1 %.not.i, label %validate_watcher_id.exit, label %20

validate_watcher_id.exit:                         ; preds = %8, %9
  %.str.48.sink.i = phi ptr [ @.str.47, %8 ], [ @.str.48, %9 ]
  %18 = load ptr, ptr @PyExc_ValueError, align 8, !tbaa !105
  %19 = tail call ptr (ptr, ptr, ...) @PyErr_Format(ptr noundef %18, ptr noundef nonnull %.str.48.sink.i, i32 noundef %0) #24
  br label %27

20:                                               ; preds = %9
  %21 = shl nuw nsw i32 1, %0
  %22 = getelementptr inbounds nuw i8, ptr %1, i64 408
  %23 = load i8, ptr %22, align 8, !tbaa !129
  %24 = trunc nuw i32 %21 to i8
  %25 = xor i8 %24, -1
  %26 = and i8 %23, %25
  store i8 %26, ptr %22, align 8, !tbaa !129
  br label %27

27:                                               ; preds = %validate_watcher_id.exit, %20, %6
  %.0 = phi i32 [ -1, %6 ], [ 0, %20 ], [ -1, %validate_watcher_id.exit ]
  ret i32 %.0
}